target datalayout = "e-m:e-p270:32:32-p271:32:32-p272:64:64-i64:64-i128:128-f80:128-n8:16:32:64-S128"
target triple = "x86_64-pc-linux-gnu"

%class.Array = type { ptr, i64, i64, i64 }
%class.RecVolumes5 = type { %class.Array.8, ptr, ptr, ptr, ptr, i64, i32, i32, i32, ptr, i32, i32, ptr }
%class.Array.8 = type { ptr, i64, i64, i64 }
%struct.RecVolItem = type { ptr, [2048 x i32], i32, i64, i8, i8 }
%class.RawRead = type { %class.Array, ptr, i64, i64, ptr }

@.str.12 = private unnamed_addr constant [9 x i8] c"Rar!\1ARev\00", align 1

; Function Attrs: mustprogress nounwind uwtable
define linkonce_odr noundef nonnull align 1 dereferenceable(1) ptr @_ZNK5ArrayIhEixEm(ptr noundef nonnull align 8 dereferenceable(32) %0, i64 noundef %1) #2 comdat align 2 {
  %3 = alloca ptr, align 8
  %4 = alloca i64, align 8
  store ptr %0, ptr %3, align 8
  store i64 %1, ptr %4, align 8
  %5 = load ptr, ptr %3, align 8
  %6 = getelementptr inbounds %class.Array, ptr %5, i32 0, i32 0
  %7 = load ptr, ptr %6, align 8
  %8 = load i64, ptr %4, align 8
  %9 = getelementptr inbounds i8, ptr %7, i64 %8
  ret ptr %9
}

; Function Attrs: mustprogress nounwind uwtable
define linkonce_odr void @_ZN5ArrayIhED2Ev(ptr noundef nonnull align 8 dereferenceable(32) %0) unnamed_addr #2 comdat align 2 {
  %2 = alloca ptr, align 8
  store ptr %0, ptr %2, align 8
  %3 = load ptr, ptr %2, align 8
  %4 = getelementptr inbounds %class.Array, ptr %3, i32 0, i32 0
  %5 = load ptr, ptr %4, align 8
  %6 = icmp ne ptr %5, null
  br i1 %6, label %7, label %10

7:                                                ; preds = %1
  %8 = getelementptr inbounds %class.Array, ptr %3, i32 0, i32 0
  %9 = load ptr, ptr %8, align 8
  call void @free(ptr noundef %9) #11
  br label %10

10:                                               ; preds = %7, %1
  ret void
}

; Function Attrs: mustprogress nounwind uwtable
define linkonce_odr noundef nonnull align 8 dereferenceable(8224) ptr @_ZNK5ArrayI10RecVolItemEixEm(ptr noundef nonnull align 8 dereferenceable(32) %0, i64 noundef %1) #2 comdat align 2 {
  %3 = alloca ptr, align 8
  %4 = alloca i64, align 8
  store ptr %0, ptr %3, align 8
  store i64 %1, ptr %4, align 8
  %5 = load ptr, ptr %3, align 8
  %6 = getelementptr inbounds %class.Array.8, ptr %5, i32 0, i32 0
  %7 = load ptr, ptr %6, align 8
  %8 = load i64, ptr %4, align 8
  %9 = getelementptr inbounds %struct.RecVolItem, ptr %7, i64 %8
  ret ptr %9
}

; Function Attrs: mustprogress nounwind uwtable
define linkonce_odr noundef i64 @_ZN5ArrayI10RecVolItemE4SizeEv(ptr noundef nonnull align 8 dereferenceable(32) %0) #2 comdat align 2 {
  %2 = alloca ptr, align 8
  store ptr %0, ptr %2, align 8
  %3 = load ptr, ptr %2, align 8
  %4 = getelementptr inbounds %class.Array.8, ptr %3, i32 0, i32 1
  %5 = load i64, ptr %4, align 8
  ret i64 %5
}

; Function Attrs: mustprogress uwtable
define linkonce_odr noundef ptr @_ZN7RawRead10GetDataPtrEv(ptr noundef nonnull align 8 dereferenceable(64) %0) #0 comdat align 2 {
  %2 = alloca ptr, align 8
  store ptr %0, ptr %2, align 8
  %3 = load ptr, ptr %2, align 8
  %4 = getelementptr inbounds %class.RawRead, ptr %3, i32 0, i32 0
  %5 = call noundef nonnull align 1 dereferenceable(1) ptr @_ZNK5ArrayIhEixEm(ptr noundef nonnull align 8 dereferenceable(32) %4, i64 noundef 0)
  ret ptr %5
}

; Function Attrs: mustprogress nounwind uwtable
define linkonce_odr void @_ZN7RawReadD2Ev(ptr noundef nonnull align 8 dereferenceable(64) %0) unnamed_addr #2 comdat align 2 {
  %2 = alloca ptr, align 8
  store ptr %0, ptr %2, align 8
  %3 = load ptr, ptr %2, align 8
  %4 = getelementptr inbounds %class.RawRead, ptr %3, i32 0, i32 0
  call void @_ZN5ArrayIhED2Ev(ptr noundef nonnull align 8 dereferenceable(32) %4) #11
  ret void
}

; Function Attrs: mustprogress nounwind uwtable
define linkonce_odr noundef i32 @_Z7RawGet4PKv(ptr noundef %0) #2 comdat {
  %2 = alloca ptr, align 8
  store ptr %0, ptr %2, align 8
  %3 = load ptr, ptr %2, align 8
  %4 = load i32, ptr %3, align 4
  ret i32 %4
}

; Function Attrs: mustprogress uwtable
define noundef i32 @_ZN11RecVolumes510ReadHeaderEP4Fileb(ptr noundef nonnull align 8 dereferenceable(112) %0, ptr noundef %1, i1 noundef zeroext %2) #0 align 2 personality ptr @__gxx_personality_v0 {
  %4 = alloca i32, align 4
  %5 = alloca ptr, align 8
  %6 = alloca ptr, align 8
  %7 = alloca i8, align 1
  %8 = alloca i64, align 8
  %9 = alloca [16 x i8], align 16
  %10 = alloca i32, align 4
  %11 = alloca i32, align 4
  %12 = alloca %class.RawRead, align 8
  %13 = alloca ptr, align 8
  %14 = alloca i32, align 4
  %15 = alloca i32, align 4
  %16 = alloca i32, align 4
  %17 = alloca i32, align 4
  %18 = alloca i32, align 4
  %19 = alloca i64, align 8
  %20 = alloca i64, align 8
  %21 = alloca i32, align 4
  store ptr %0, ptr %5, align 8
  store ptr %1, ptr %6, align 8
  %22 = zext i1 %2 to i8
  store i8 %22, ptr %7, align 1
  %23 = load ptr, ptr %5, align 8
  store i64 16, ptr %8, align 8
  %24 = load ptr, ptr %6, align 8
  %25 = getelementptr inbounds [16 x i8], ptr %9, i64 0, i64 0
  %26 = load ptr, ptr %24, align 8
  %27 = getelementptr inbounds ptr, ptr %26, i64 4
  %28 = load ptr, ptr %27, align 8
  %29 = call noundef i32 %28(ptr noundef nonnull align 8 dereferenceable(8256) %24, ptr noundef %25, i64 noundef 16)
  %30 = sext i32 %29 to i64
  %31 = icmp ne i64 %30, 16
  br i1 %31, label %32, label %33

32:                                               ; preds = %3
  store i32 0, ptr %4, align 4
  br label %183

33:                                               ; preds = %3
  %34 = getelementptr inbounds [16 x i8], ptr %9, i64 0, i64 0
  %35 = call i32 @memcmp(ptr noundef %34, ptr noundef @.str.12, i64 noundef 8) #15
  %36 = icmp ne i32 %35, 0
  br i1 %36, label %37, label %38

37:                                               ; preds = %33
  store i32 0, ptr %4, align 4
  br label %183

38:                                               ; preds = %33
  %39 = getelementptr inbounds [16 x i8], ptr %9, i64 0, i64 0
  %40 = getelementptr inbounds i8, ptr %39, i64 8
  %41 = getelementptr inbounds i8, ptr %40, i64 4
  %42 = call noundef i32 @_Z7RawGet4PKv(ptr noundef %41)
  store i32 %42, ptr %10, align 4
  %43 = load i32, ptr %10, align 4
  %44 = icmp ugt i32 %43, 1048576
  br i1 %44, label %48, label %45

45:                                               ; preds = %38
  %46 = load i32, ptr %10, align 4
  %47 = icmp ule i32 %46, 5
  br i1 %47, label %48, label %49

48:                                               ; preds = %45, %38
  store i32 0, ptr %4, align 4
  br label %183

49:                                               ; preds = %45
  %50 = getelementptr inbounds [16 x i8], ptr %9, i64 0, i64 0
  %51 = getelementptr inbounds i8, ptr %50, i64 8
  %52 = call noundef i32 @_Z7RawGet4PKv(ptr noundef %51)
  store i32 %52, ptr %11, align 4
  %53 = load ptr, ptr %6, align 8
  call void @_ZN7RawReadC1EP4File(ptr noundef nonnull align 8 dereferenceable(64) %12, ptr noundef %53)
  %54 = load i32, ptr %10, align 4
  %55 = zext i32 %54 to i64
  %56 = invoke noundef i64 @_ZN7RawRead4ReadEm(ptr noundef nonnull align 8 dereferenceable(64) %12, i64 noundef %55)
          to label %57 unwind label %62

57:                                               ; preds = %49
  %58 = load i32, ptr %10, align 4
  %59 = zext i32 %58 to i64
  %60 = icmp ne i64 %56, %59
  br i1 %60, label %61, label %66

61:                                               ; preds = %57
  store i32 0, ptr %4, align 4
  store i32 1, ptr %15, align 4
  br label %182

62:                                               ; preds = %173, %162, %159, %154, %152, %137, %124, %121, %116, %95, %91, %89, %83, %74, %71, %66, %49
  %63 = landingpad { ptr, i32 }
          cleanup
  %64 = extractvalue { ptr, i32 } %63, 0
  store ptr %64, ptr %13, align 8
  %65 = extractvalue { ptr, i32 } %63, 1
  store i32 %65, ptr %14, align 4
  call void @_ZN7RawReadD2Ev(ptr noundef nonnull align 8 dereferenceable(64) %12) #11
  br label %185

66:                                               ; preds = %57
  %67 = getelementptr inbounds [16 x i8], ptr %9, i64 0, i64 0
  %68 = getelementptr inbounds i8, ptr %67, i64 8
  %69 = getelementptr inbounds i8, ptr %68, i64 4
  %70 = invoke noundef i32 @_Z5CRC32jPKvm(i32 noundef -1, ptr noundef %69, i64 noundef 4)
          to label %71 unwind label %62

71:                                               ; preds = %66
  store i32 %70, ptr %16, align 4
  %72 = load i32, ptr %16, align 4
  %73 = invoke noundef ptr @_ZN7RawRead10GetDataPtrEv(ptr noundef nonnull align 8 dereferenceable(64) %12)
          to label %74 unwind label %62

74:                                               ; preds = %71
  %75 = load i32, ptr %10, align 4
  %76 = zext i32 %75 to i64
  %77 = invoke noundef i32 @_Z5CRC32jPKvm(i32 noundef %72, ptr noundef %73, i64 noundef %76)
          to label %78 unwind label %62

78:                                               ; preds = %74
  %79 = xor i32 %77, -1
  %80 = load i32, ptr %11, align 4
  %81 = icmp ne i32 %79, %80
  br i1 %81, label %82, label %83

82:                                               ; preds = %78
  store i32 0, ptr %4, align 4
  store i32 1, ptr %15, align 4
  br label %182

83:                                               ; preds = %78
  %84 = invoke noundef zeroext i8 @_ZN7RawRead4Get1Ev(ptr noundef nonnull align 8 dereferenceable(64) %12)
          to label %85 unwind label %62

85:                                               ; preds = %83
  %86 = zext i8 %84 to i32
  %87 = icmp ne i32 %86, 1
  br i1 %87, label %88, label %89

88:                                               ; preds = %85
  store i32 0, ptr %4, align 4
  store i32 1, ptr %15, align 4
  br label %182

89:                                               ; preds = %85
  %90 = invoke noundef zeroext i16 @_ZN7RawRead4Get2Ev(ptr noundef nonnull align 8 dereferenceable(64) %12)
          to label %91 unwind label %62

91:                                               ; preds = %89
  %92 = zext i16 %90 to i32
  %93 = getelementptr inbounds %class.RecVolumes5, ptr %23, i32 0, i32 6
  store i32 %92, ptr %93, align 8
  %94 = invoke noundef zeroext i16 @_ZN7RawRead4Get2Ev(ptr noundef nonnull align 8 dereferenceable(64) %12)
          to label %95 unwind label %62

95:                                               ; preds = %91
  %96 = zext i16 %94 to i32
  %97 = getelementptr inbounds %class.RecVolumes5, ptr %23, i32 0, i32 7
  store i32 %96, ptr %97, align 4
  %98 = getelementptr inbounds %class.RecVolumes5, ptr %23, i32 0, i32 6
  %99 = load i32, ptr %98, align 8
  %100 = getelementptr inbounds %class.RecVolumes5, ptr %23, i32 0, i32 7
  %101 = load i32, ptr %100, align 4
  %102 = add i32 %99, %101
  %103 = getelementptr inbounds %class.RecVolumes5, ptr %23, i32 0, i32 8
  store i32 %102, ptr %103, align 8
  %104 = invoke noundef zeroext i16 @_ZN7RawRead4Get2Ev(ptr noundef nonnull align 8 dereferenceable(64) %12)
          to label %105 unwind label %62

105:                                              ; preds = %95
  %106 = zext i16 %104 to i32
  store i32 %106, ptr %17, align 4
  %107 = load i32, ptr %17, align 4
  %108 = getelementptr inbounds %class.RecVolumes5, ptr %23, i32 0, i32 8
  %109 = load i32, ptr %108, align 8
  %110 = icmp uge i32 %107, %109
  br i1 %110, label %115, label %111

111:                                              ; preds = %105
  %112 = getelementptr inbounds %class.RecVolumes5, ptr %23, i32 0, i32 8
  %113 = load i32, ptr %112, align 8
  %114 = icmp ugt i32 %113, 65535
  br i1 %114, label %115, label %116

115:                                              ; preds = %111, %105
  store i32 0, ptr %4, align 4
  store i32 1, ptr %15, align 4
  br label %182

116:                                              ; preds = %111
  %117 = invoke noundef i32 @_ZN7RawRead4Get4Ev(ptr noundef nonnull align 8 dereferenceable(64) %12)
          to label %118 unwind label %62

118:                                              ; preds = %116
  store i32 %117, ptr %18, align 4
  %119 = load i8, ptr %7, align 1
  %120 = trunc i8 %119 to i1
  br i1 %120, label %121, label %173

121:                                              ; preds = %118
  %122 = getelementptr inbounds %class.RecVolumes5, ptr %23, i32 0, i32 0
  %123 = invoke noundef i64 @_ZN5ArrayI10RecVolItemE4SizeEv(ptr noundef nonnull align 8 dereferenceable(32) %122)
          to label %124 unwind label %62

124:                                              ; preds = %121
  store i64 %123, ptr %19, align 8
  %125 = getelementptr inbounds %class.RecVolumes5, ptr %23, i32 0, i32 0
  %126 = getelementptr inbounds %class.RecVolumes5, ptr %23, i32 0, i32 8
  %127 = load i32, ptr %126, align 8
  %128 = zext i32 %127 to i64
  invoke void @_ZN5ArrayI10RecVolItemE5AllocEm(ptr noundef nonnull align 8 dereferenceable(32) %125, i64 noundef %128)
          to label %129 unwind label %62

129:                                              ; preds = %124
  %130 = load i64, ptr %19, align 8
  store i64 %130, ptr %20, align 8
  br label %131

131:                                              ; preds = %143, %129
  %132 = load i64, ptr %20, align 8
  %133 = getelementptr inbounds %class.RecVolumes5, ptr %23, i32 0, i32 8
  %134 = load i32, ptr %133, align 8
  %135 = zext i32 %134 to i64
  %136 = icmp ult i64 %132, %135
  br i1 %136, label %137, label %146

137:                                              ; preds = %131
  %138 = getelementptr inbounds %class.RecVolumes5, ptr %23, i32 0, i32 0
  %139 = load i64, ptr %20, align 8
  %140 = invoke noundef nonnull align 8 dereferenceable(8224) ptr @_ZNK5ArrayI10RecVolItemEixEm(ptr noundef nonnull align 8 dereferenceable(32) %138, i64 noundef %139)
          to label %141 unwind label %62

141:                                              ; preds = %137
  %142 = getelementptr inbounds %struct.RecVolItem, ptr %140, i32 0, i32 0
  store ptr null, ptr %142, align 8
  br label %143

143:                                              ; preds = %141
  %144 = load i64, ptr %20, align 8
  %145 = add i64 %144, 1
  store i64 %145, ptr %20, align 8
  br label %131, !llvm.loop !51

146:                                              ; preds = %131
  store i32 0, ptr %21, align 4
  br label %147

147:                                              ; preds = %169, %146
  %148 = load i32, ptr %21, align 4
  %149 = getelementptr inbounds %class.RecVolumes5, ptr %23, i32 0, i32 6
  %150 = load i32, ptr %149, align 8
  %151 = icmp ult i32 %148, %150
  br i1 %151, label %152, label %172

152:                                              ; preds = %147
  %153 = invoke noundef i64 @_ZN7RawRead4Get8Ev(ptr noundef nonnull align 8 dereferenceable(64) %12)
          to label %154 unwind label %62

154:                                              ; preds = %152
  %155 = getelementptr inbounds %class.RecVolumes5, ptr %23, i32 0, i32 0
  %156 = load i32, ptr %21, align 4
  %157 = zext i32 %156 to i64
  %158 = invoke noundef nonnull align 8 dereferenceable(8224) ptr @_ZNK5ArrayI10RecVolItemEixEm(ptr noundef nonnull align 8 dereferenceable(32) %155, i64 noundef %157)
          to label %159 unwind label %62

159:                                              ; preds = %154
  %160 = getelementptr inbounds %struct.RecVolItem, ptr %158, i32 0, i32 3
  store i64 %153, ptr %160, align 8
  %161 = invoke noundef i32 @_ZN7RawRead4Get4Ev(ptr noundef nonnull align 8 dereferenceable(64) %12)
          to label %162 unwind label %62

162:                                              ; preds = %159
  %163 = getelementptr inbounds %class.RecVolumes5, ptr %23, i32 0, i32 0
  %164 = load i32, ptr %21, align 4
  %165 = zext i32 %164 to i64
  %166 = invoke noundef nonnull align 8 dereferenceable(8224) ptr @_ZNK5ArrayI10RecVolItemEixEm(ptr noundef nonnull align 8 dereferenceable(32) %163, i64 noundef %165)
          to label %167 unwind label %62

167:                                              ; preds = %162
  %168 = getelementptr inbounds %struct.RecVolItem, ptr %166, i32 0, i32 2
  store i32 %161, ptr %168, align 8
  br label %169

169:                                              ; preds = %167
  %170 = load i32, ptr %21, align 4
  %171 = add i32 %170, 1
  store i32 %171, ptr %21, align 4
  br label %147, !llvm.loop !52

172:                                              ; preds = %147
  br label %173

173:                                              ; preds = %172, %118
  %174 = load i32, ptr %18, align 4
  %175 = getelementptr inbounds %class.RecVolumes5, ptr %23, i32 0, i32 0
  %176 = load i32, ptr %17, align 4
  %177 = zext i32 %176 to i64
  %178 = invoke noundef nonnull align 8 dereferenceable(8224) ptr @_ZNK5ArrayI10RecVolItemEixEm(ptr noundef nonnull align 8 dereferenceable(32) %175, i64 noundef %177)
          to label %179 unwind label %62

179:                                              ; preds = %173
  %180 = getelementptr inbounds %struct.RecVolItem, ptr %178, i32 0, i32 2
  store i32 %174, ptr %180, align 8
  %181 = load i32, ptr %17, align 4
  store i32 %181, ptr %4, align 4
  store i32 1, ptr %15, align 4
  br label %182

182:                                              ; preds = %179, %115, %88, %82, %61
  call void @_ZN7RawReadD2Ev(ptr noundef nonnull align 8 dereferenceable(64) %12) #11
  br label %183

183:                                              ; preds = %182, %48, %37, %32
  %184 = load i32, ptr %4, align 4
  ret i32 %184

185:                                              ; preds = %62
  %186 = load ptr, ptr %13, align 8
  %187 = load i32, ptr %14, align 4
  %188 = insertvalue { ptr, i32 } poison, ptr %186, 0
  %189 = insertvalue { ptr, i32 } %188, i32 %187, 1
  resume { ptr, i32 } %189
}