; Function Attrs: mustprogress uwtable
define noundef i32 @_ZN11RecVolumes510ReadHeaderEP4Fileb(ptr noundef nonnull align 8 dereferenceable(112) %0, ptr noundef %1, i1 noundef zeroext %2) local_unnamed_addr #0 align 2 personality ptr @__gxx_personality_v0 {
  %4 = alloca [16 x i8], align 16
  %5 = alloca %class.RawRead, align 8
  %6 = load ptr, ptr %1, align 8
  %7 = getelementptr inbounds i8, ptr %6, i64 32
  %8 = load ptr, ptr %7, align 8
  %9 = call noundef i32 %8(ptr noundef nonnull align 8 dereferenceable(8256) %1, ptr noundef nonnull %4, i64 noundef 16)
  %.not = icmp eq i32 %9, 16
  %lhsv = load i64, ptr %4, align 16
  %.not32 = icmp eq i64 %lhsv, 8531315341307044178
  %or.cond38 = select i1 %.not, i1 %.not32, i1 false
  br i1 %or.cond38, label %10, label %_ZN7RawReadD2Ev.exit40

10:                                               ; preds = %3
  %11 = getelementptr inbounds i8, ptr %4, i64 12
  %12 = load i32, ptr %11, align 4
  %13 = add i32 %12, -1048577
  %or.cond = icmp ult i32 %13, -1048571
  br i1 %or.cond, label %_ZN7RawReadD2Ev.exit40, label %14

14:                                               ; preds = %10
  %15 = getelementptr inbounds i8, ptr %4, i64 8
  %16 = load i32, ptr %15, align 8
  call void @_ZN7RawReadC1EP4File(ptr noundef nonnull align 8 dereferenceable(64) %5, ptr noundef nonnull %1)
  %17 = zext nneg i32 %12 to i64
  %18 = invoke noundef i64 @_ZN7RawRead4ReadEm(ptr noundef nonnull align 8 dereferenceable(64) %5, i64 noundef %17)
          to label %19 unwind label %.loopexit.split-lp

19:                                               ; preds = %14
  %.not33 = icmp eq i64 %18, %17
  br i1 %.not33, label %23, label %82

.loopexit41:                                      ; preds = %.lr.ph45, %69
  %lpad.loopexit = landingpad { ptr, i32 }
          cleanup
  br label %20

.loopexit.split-lp:                               ; preds = %14, %23, %25, %30, %33, %35, %39, %50, %53
  %lpad.loopexit.split-lp = landingpad { ptr, i32 }
          cleanup
  br label %20

20:                                               ; preds = %.loopexit.split-lp, %.loopexit41
  %lpad.phi = phi { ptr, i32 } [ %lpad.loopexit, %.loopexit41 ], [ %lpad.loopexit.split-lp, %.loopexit.split-lp ]
  %21 = load ptr, ptr %5, align 8
  %.not.i.i = icmp eq ptr %21, null
  br i1 %.not.i.i, label %_ZN7RawReadD2Ev.exit, label %22

22:                                               ; preds = %20
  call void @free(ptr noundef nonnull %21) #14
  br label %_ZN7RawReadD2Ev.exit

_ZN7RawReadD2Ev.exit:                             ; preds = %20, %22
  resume { ptr, i32 } %lpad.phi

23:                                               ; preds = %19
  %24 = invoke noundef i32 @_Z5CRC32jPKvm(i32 noundef -1, ptr noundef nonnull %11, i64 noundef 4)
          to label %25 unwind label %.loopexit.split-lp

25:                                               ; preds = %23
  %26 = load ptr, ptr %5, align 8
  %27 = invoke noundef i32 @_Z5CRC32jPKvm(i32 noundef %24, ptr noundef %26, i64 noundef %17)
          to label %28 unwind label %.loopexit.split-lp

28:                                               ; preds = %25
  %29 = xor i32 %27, %16
  %.not34 = icmp eq i32 %29, -1
  br i1 %.not34, label %30, label %82

30:                                               ; preds = %28
  %31 = invoke noundef zeroext i8 @_ZN7RawRead4Get1Ev(ptr noundef nonnull align 8 dereferenceable(64) %5)
          to label %32 unwind label %.loopexit.split-lp

32:                                               ; preds = %30
  %.not35 = icmp eq i8 %31, 1
  br i1 %.not35, label %33, label %82

33:                                               ; preds = %32
  %34 = invoke noundef zeroext i16 @_ZN7RawRead4Get2Ev(ptr noundef nonnull align 8 dereferenceable(64) %5)
          to label %35 unwind label %.loopexit.split-lp

35:                                               ; preds = %33
  %36 = zext i16 %34 to i32
  %37 = getelementptr inbounds i8, ptr %0, i64 72
  store i32 %36, ptr %37, align 8
  %38 = invoke noundef zeroext i16 @_ZN7RawRead4Get2Ev(ptr noundef nonnull align 8 dereferenceable(64) %5)
          to label %39 unwind label %.loopexit.split-lp

39:                                               ; preds = %35
  %40 = zext i16 %38 to i32
  %41 = getelementptr inbounds i8, ptr %0, i64 76
  store i32 %40, ptr %41, align 4
  %42 = load i32, ptr %37, align 8
  %43 = add i32 %42, %40
  %44 = getelementptr inbounds i8, ptr %0, i64 80
  store i32 %43, ptr %44, align 8
  %45 = invoke noundef zeroext i16 @_ZN7RawRead4Get2Ev(ptr noundef nonnull align 8 dereferenceable(64) %5)
          to label %46 unwind label %.loopexit.split-lp

46:                                               ; preds = %39
  %47 = zext i16 %45 to i32
  %48 = load i32, ptr %44, align 8
  %.not36 = icmp ule i32 %48, %47
  %49 = icmp ugt i32 %48, 65535
  %or.cond37 = or i1 %.not36, %49
  br i1 %or.cond37, label %82, label %50

50:                                               ; preds = %46
  %51 = invoke noundef i32 @_ZN7RawRead4Get4Ev(ptr noundef nonnull align 8 dereferenceable(64) %5)
          to label %52 unwind label %.loopexit.split-lp

52:                                               ; preds = %50
  br i1 %2, label %53, label %.loopexit

53:                                               ; preds = %52
  %54 = getelementptr inbounds i8, ptr %0, i64 8
  %55 = load i64, ptr %54, align 8
  %56 = load i32, ptr %44, align 8
  %57 = zext i32 %56 to i64
  invoke void @_ZN5ArrayI10RecVolItemE5AllocEm(ptr noundef nonnull align 8 dereferenceable(32) %0, i64 noundef %57)
          to label %.preheader42 unwind label %.loopexit.split-lp

.preheader42:                                     ; preds = %53
  %58 = load i32, ptr %44, align 8
  %59 = zext i32 %58 to i64
  %60 = icmp ult i64 %55, %59
  br i1 %60, label %.lr.ph, label %.preheader

.preheader:                                       ; preds = %.lr.ph, %.preheader42
  %61 = load i32, ptr %37, align 8
  %.not46 = icmp eq i32 %61, 0
  br i1 %.not46, label %.loopexit, label %.lr.ph45

.lr.ph:                                           ; preds = %.preheader42, %.lr.ph
  %.02643 = phi i64 [ %64, %.lr.ph ], [ %55, %.preheader42 ]
  %62 = load ptr, ptr %0, align 8
  %63 = getelementptr inbounds %struct.RecVolItem, ptr %62, i64 %.02643
  store ptr null, ptr %63, align 8
  %64 = add nuw nsw i64 %.02643, 1
  %65 = load i32, ptr %44, align 8
  %66 = zext i32 %65 to i64
  %67 = icmp ult i64 %64, %66
  br i1 %67, label %.lr.ph, label %.preheader, !llvm.loop !50

.lr.ph45:                                         ; preds = %.preheader, %73
  %indvars.iv = phi i64 [ %indvars.iv.next, %73 ], [ 0, %.preheader ]
  %68 = invoke noundef i64 @_ZN7RawRead4Get8Ev(ptr noundef nonnull align 8 dereferenceable(64) %5)
          to label %69 unwind label %.loopexit41

69:                                               ; preds = %.lr.ph45
  %70 = load ptr, ptr %0, align 8
  %71 = getelementptr inbounds %struct.RecVolItem, ptr %70, i64 %indvars.iv, i32 3
  store i64 %68, ptr %71, align 8
  %72 = invoke noundef i32 @_ZN7RawRead4Get4Ev(ptr noundef nonnull align 8 dereferenceable(64) %5)
          to label %73 unwind label %.loopexit41

73:                                               ; preds = %69
  %74 = load ptr, ptr %0, align 8
  %75 = getelementptr inbounds %struct.RecVolItem, ptr %74, i64 %indvars.iv, i32 2
  store i32 %72, ptr %75, align 8
  %indvars.iv.next = add nuw nsw i64 %indvars.iv, 1
  %76 = load i32, ptr %37, align 8
  %77 = zext i32 %76 to i64
  %78 = icmp ult i64 %indvars.iv.next, %77
  br i1 %78, label %.lr.ph45, label %.loopexit, !llvm.loop !51

.loopexit:                                        ; preds = %73, %.preheader, %52
  %79 = zext i16 %45 to i64
  %80 = load ptr, ptr %0, align 8
  %81 = getelementptr inbounds %struct.RecVolItem, ptr %80, i64 %79, i32 2
  store i32 %51, ptr %81, align 8
  br label %82

82:                                               ; preds = %46, %32, %28, %19, %.loopexit
  %.027 = phi i32 [ %47, %.loopexit ], [ 0, %19 ], [ 0, %28 ], [ 0, %32 ], [ 0, %46 ]
  %83 = load ptr, ptr %5, align 8
  %.not.i.i39 = icmp eq ptr %83, null
  br i1 %.not.i.i39, label %_ZN7RawReadD2Ev.exit40, label %84

84:                                               ; preds = %82
  call void @free(ptr noundef nonnull %83) #14
  br label %_ZN7RawReadD2Ev.exit40

_ZN7RawReadD2Ev.exit40:                           ; preds = %84, %82, %10, %3
  %.1 = phi i32 [ 0, %3 ], [ 0, %10 ], [ %.027, %82 ], [ %.027, %84 ]
  ret i32 %.1
}